target datalayout = "e-m:e-p270:32:32-p271:32:32-p272:64:64-i64:64-i128:128-f80:128-n8:16:32:64-S128"
target triple = "x86_64-pc-linux-gnu"

; Function Attrs: nounwind uwtable
define internal void @ps_stereo_interpolate_ipdopd_c(ptr noundef %0, ptr noundef %1, ptr noundef %2, ptr noundef %3, i32 noundef %4) #1 {
  %6 = alloca ptr, align 8
  %7 = alloca ptr, align 8
  %8 = alloca ptr, align 8
  %9 = alloca ptr, align 8
  %10 = alloca i32, align 4
  %11 = alloca i32, align 4
  %12 = alloca i32, align 4
  %13 = alloca i32, align 4
  %14 = alloca i32, align 4
  %15 = alloca i32, align 4
  %16 = alloca i32, align 4
  %17 = alloca i32, align 4
  %18 = alloca i32, align 4
  %19 = alloca i32, align 4
  %20 = alloca i32, align 4
  %21 = alloca i32, align 4
  %22 = alloca i32, align 4
  %23 = alloca i32, align 4
  %24 = alloca i32, align 4
  %25 = alloca i32, align 4
  %26 = alloca i32, align 4
  %27 = alloca i32, align 4
  %28 = alloca i32, align 4
  %29 = alloca i32, align 4
  %30 = alloca i32, align 4
  %31 = alloca i32, align 4
  store ptr %0, ptr %6, align 8, !tbaa !17
  store ptr %1, ptr %7, align 8, !tbaa !17
  store ptr %2, ptr %8, align 8, !tbaa !17
  store ptr %3, ptr %9, align 8, !tbaa !17
  store i32 %4, ptr %10, align 4, !tbaa !19
  call void @llvm.lifetime.start.p0(i64 4, ptr %11) #3
  %32 = load ptr, ptr %8, align 8, !tbaa !17
  %33 = getelementptr inbounds [4 x i32], ptr %32, i64 0
  %34 = getelementptr inbounds [4 x i32], ptr %33, i64 0, i64 0
  %35 = load i32, ptr %34, align 4, !tbaa !19
  store i32 %35, ptr %11, align 4, !tbaa !19
  call void @llvm.lifetime.start.p0(i64 4, ptr %12) #3
  %36 = load ptr, ptr %8, align 8, !tbaa !17
  %37 = getelementptr inbounds [4 x i32], ptr %36, i64 1
  %38 = getelementptr inbounds [4 x i32], ptr %37, i64 0, i64 0
  %39 = load i32, ptr %38, align 4, !tbaa !19
  store i32 %39, ptr %12, align 4, !tbaa !19
  call void @llvm.lifetime.start.p0(i64 4, ptr %13) #3
  %40 = load ptr, ptr %8, align 8, !tbaa !17
  %41 = getelementptr inbounds [4 x i32], ptr %40, i64 0
  %42 = getelementptr inbounds [4 x i32], ptr %41, i64 0, i64 1
  %43 = load i32, ptr %42, align 4, !tbaa !19
  store i32 %43, ptr %13, align 4, !tbaa !19
  call void @llvm.lifetime.start.p0(i64 4, ptr %14) #3
  %44 = load ptr, ptr %8, align 8, !tbaa !17
  %45 = getelementptr inbounds [4 x i32], ptr %44, i64 1
  %46 = getelementptr inbounds [4 x i32], ptr %45, i64 0, i64 1
  %47 = load i32, ptr %46, align 4, !tbaa !19
  store i32 %47, ptr %14, align 4, !tbaa !19
  call void @llvm.lifetime.start.p0(i64 4, ptr %15) #3
  %48 = load ptr, ptr %8, align 8, !tbaa !17
  %49 = getelementptr inbounds [4 x i32], ptr %48, i64 0
  %50 = getelementptr inbounds [4 x i32], ptr %49, i64 0, i64 2
  %51 = load i32, ptr %50, align 4, !tbaa !19
  store i32 %51, ptr %15, align 4, !tbaa !19
  call void @llvm.lifetime.start.p0(i64 4, ptr %16) #3
  %52 = load ptr, ptr %8, align 8, !tbaa !17
  %53 = getelementptr inbounds [4 x i32], ptr %52, i64 1
  %54 = getelementptr inbounds [4 x i32], ptr %53, i64 0, i64 2
  %55 = load i32, ptr %54, align 4, !tbaa !19
  store i32 %55, ptr %16, align 4, !tbaa !19
  call void @llvm.lifetime.start.p0(i64 4, ptr %17) #3
  %56 = load ptr, ptr %8, align 8, !tbaa !17
  %57 = getelementptr inbounds [4 x i32], ptr %56, i64 0
  %58 = getelementptr inbounds [4 x i32], ptr %57, i64 0, i64 3
  %59 = load i32, ptr %58, align 4, !tbaa !19
  store i32 %59, ptr %17, align 4, !tbaa !19
  call void @llvm.lifetime.start.p0(i64 4, ptr %18) #3
  %60 = load ptr, ptr %8, align 8, !tbaa !17
  %61 = getelementptr inbounds [4 x i32], ptr %60, i64 1
  %62 = getelementptr inbounds [4 x i32], ptr %61, i64 0, i64 3
  %63 = load i32, ptr %62, align 4, !tbaa !19
  store i32 %63, ptr %18, align 4, !tbaa !19
  call void @llvm.lifetime.start.p0(i64 4, ptr %19) #3
  %64 = load ptr, ptr %9, align 8, !tbaa !17
  %65 = getelementptr inbounds [4 x i32], ptr %64, i64 0
  %66 = getelementptr inbounds [4 x i32], ptr %65, i64 0, i64 0
  %67 = load i32, ptr %66, align 4, !tbaa !19
  store i32 %67, ptr %19, align 4, !tbaa !19
  call void @llvm.lifetime.start.p0(i64 4, ptr %20) #3
  %68 = load ptr, ptr %9, align 8, !tbaa !17
  %69 = getelementptr inbounds [4 x i32], ptr %68, i64 1
  %70 = getelementptr inbounds [4 x i32], ptr %69, i64 0, i64 0
  %71 = load i32, ptr %70, align 4, !tbaa !19
  store i32 %71, ptr %20, align 4, !tbaa !19
  call void @llvm.lifetime.start.p0(i64 4, ptr %21) #3
  %72 = load ptr, ptr %9, align 8, !tbaa !17
  %73 = getelementptr inbounds [4 x i32], ptr %72, i64 0
  %74 = getelementptr inbounds [4 x i32], ptr %73, i64 0, i64 1
  %75 = load i32, ptr %74, align 4, !tbaa !19
  store i32 %75, ptr %21, align 4, !tbaa !19
  call void @llvm.lifetime.start.p0(i64 4, ptr %22) #3
  %76 = load ptr, ptr %9, align 8, !tbaa !17
  %77 = getelementptr inbounds [4 x i32], ptr %76, i64 1
  %78 = getelementptr inbounds [4 x i32], ptr %77, i64 0, i64 1
  %79 = load i32, ptr %78, align 4, !tbaa !19
  store i32 %79, ptr %22, align 4, !tbaa !19
  call void @llvm.lifetime.start.p0(i64 4, ptr %23) #3
  %80 = load ptr, ptr %9, align 8, !tbaa !17
  %81 = getelementptr inbounds [4 x i32], ptr %80, i64 0
  %82 = getelementptr inbounds [4 x i32], ptr %81, i64 0, i64 2
  %83 = load i32, ptr %82, align 4, !tbaa !19
  store i32 %83, ptr %23, align 4, !tbaa !19
  call void @llvm.lifetime.start.p0(i64 4, ptr %24) #3
  %84 = load ptr, ptr %9, align 8, !tbaa !17
  %85 = getelementptr inbounds [4 x i32], ptr %84, i64 1
  %86 = getelementptr inbounds [4 x i32], ptr %85, i64 0, i64 2
  %87 = load i32, ptr %86, align 4, !tbaa !19
  store i32 %87, ptr %24, align 4, !tbaa !19
  call void @llvm.lifetime.start.p0(i64 4, ptr %25) #3
  %88 = load ptr, ptr %9, align 8, !tbaa !17
  %89 = getelementptr inbounds [4 x i32], ptr %88, i64 0
  %90 = getelementptr inbounds [4 x i32], ptr %89, i64 0, i64 3
  %91 = load i32, ptr %90, align 4, !tbaa !19
  store i32 %91, ptr %25, align 4, !tbaa !19
  call void @llvm.lifetime.start.p0(i64 4, ptr %26) #3
  %92 = load ptr, ptr %9, align 8, !tbaa !17
  %93 = getelementptr inbounds [4 x i32], ptr %92, i64 1
  %94 = getelementptr inbounds [4 x i32], ptr %93, i64 0, i64 3
  %95 = load i32, ptr %94, align 4, !tbaa !19
  store i32 %95, ptr %26, align 4, !tbaa !19
  call void @llvm.lifetime.start.p0(i64 4, ptr %27) #3
  store i32 0, ptr %27, align 4, !tbaa !19
  br label %96

96:                                               ; preds = %273, %5
  %97 = load i32, ptr %27, align 4, !tbaa !19
  %98 = load i32, ptr %10, align 4, !tbaa !19
  %99 = icmp slt i32 %97, %98
  br i1 %99, label %100, label %276

100:                                              ; preds = %96
  call void @llvm.lifetime.start.p0(i64 4, ptr %28) #3
  %101 = load ptr, ptr %6, align 8, !tbaa !17
  %102 = load i32, ptr %27, align 4, !tbaa !19
  %103 = sext i32 %102 to i64
  %104 = getelementptr inbounds [2 x i32], ptr %101, i64 %103
  %105 = getelementptr inbounds [2 x i32], ptr %104, i64 0, i64 0
  %106 = load i32, ptr %105, align 4, !tbaa !19
  store i32 %106, ptr %28, align 4, !tbaa !19
  call void @llvm.lifetime.start.p0(i64 4, ptr %29) #3
  %107 = load ptr, ptr %6, align 8, !tbaa !17
  %108 = load i32, ptr %27, align 4, !tbaa !19
  %109 = sext i32 %108 to i64
  %110 = getelementptr inbounds [2 x i32], ptr %107, i64 %109
  %111 = getelementptr inbounds [2 x i32], ptr %110, i64 0, i64 1
  %112 = load i32, ptr %111, align 4, !tbaa !19
  store i32 %112, ptr %29, align 4, !tbaa !19
  call void @llvm.lifetime.start.p0(i64 4, ptr %30) #3
  %113 = load ptr, ptr %7, align 8, !tbaa !17
  %114 = load i32, ptr %27, align 4, !tbaa !19
  %115 = sext i32 %114 to i64
  %116 = getelementptr inbounds [2 x i32], ptr %113, i64 %115
  %117 = getelementptr inbounds [2 x i32], ptr %116, i64 0, i64 0
  %118 = load i32, ptr %117, align 4, !tbaa !19
  store i32 %118, ptr %30, align 4, !tbaa !19
  call void @llvm.lifetime.start.p0(i64 4, ptr %31) #3
  %119 = load ptr, ptr %7, align 8, !tbaa !17
  %120 = load i32, ptr %27, align 4, !tbaa !19
  %121 = sext i32 %120 to i64
  %122 = getelementptr inbounds [2 x i32], ptr %119, i64 %121
  %123 = getelementptr inbounds [2 x i32], ptr %122, i64 0, i64 1
  %124 = load i32, ptr %123, align 4, !tbaa !19
  store i32 %124, ptr %31, align 4, !tbaa !19
  %125 = load i32, ptr %19, align 4, !tbaa !19
  %126 = load i32, ptr %11, align 4, !tbaa !19
  %127 = add i32 %126, %125
  store i32 %127, ptr %11, align 4, !tbaa !19
  %128 = load i32, ptr %21, align 4, !tbaa !19
  %129 = load i32, ptr %13, align 4, !tbaa !19
  %130 = add i32 %129, %128
  store i32 %130, ptr %13, align 4, !tbaa !19
  %131 = load i32, ptr %23, align 4, !tbaa !19
  %132 = load i32, ptr %15, align 4, !tbaa !19
  %133 = add i32 %132, %131
  store i32 %133, ptr %15, align 4, !tbaa !19
  %134 = load i32, ptr %25, align 4, !tbaa !19
  %135 = load i32, ptr %17, align 4, !tbaa !19
  %136 = add i32 %135, %134
  store i32 %136, ptr %17, align 4, !tbaa !19
  %137 = load i32, ptr %20, align 4, !tbaa !19
  %138 = load i32, ptr %12, align 4, !tbaa !19
  %139 = add i32 %138, %137
  store i32 %139, ptr %12, align 4, !tbaa !19
  %140 = load i32, ptr %22, align 4, !tbaa !19
  %141 = load i32, ptr %14, align 4, !tbaa !19
  %142 = add i32 %141, %140
  store i32 %142, ptr %14, align 4, !tbaa !19
  %143 = load i32, ptr %24, align 4, !tbaa !19
  %144 = load i32, ptr %16, align 4, !tbaa !19
  %145 = add i32 %144, %143
  store i32 %145, ptr %16, align 4, !tbaa !19
  %146 = load i32, ptr %26, align 4, !tbaa !19
  %147 = load i32, ptr %18, align 4, !tbaa !19
  %148 = add i32 %147, %146
  store i32 %148, ptr %18, align 4, !tbaa !19
  %149 = load i32, ptr %11, align 4, !tbaa !19
  %150 = sext i32 %149 to i64
  %151 = load i32, ptr %28, align 4, !tbaa !19
  %152 = sext i32 %151 to i64
  %153 = mul nsw i64 %150, %152
  %154 = load i32, ptr %15, align 4, !tbaa !19
  %155 = sext i32 %154 to i64
  %156 = load i32, ptr %30, align 4, !tbaa !19
  %157 = sext i32 %156 to i64
  %158 = mul nsw i64 %155, %157
  %159 = add nsw i64 %153, %158
  %160 = load i32, ptr %12, align 4, !tbaa !19
  %161 = sext i32 %160 to i64
  %162 = load i32, ptr %29, align 4, !tbaa !19
  %163 = sext i32 %162 to i64
  %164 = mul nsw i64 %161, %163
  %165 = sub nsw i64 %159, %164
  %166 = load i32, ptr %16, align 4, !tbaa !19
  %167 = sext i32 %166 to i64
  %168 = load i32, ptr %31, align 4, !tbaa !19
  %169 = sext i32 %168 to i64
  %170 = mul nsw i64 %167, %169
  %171 = sub nsw i64 %165, %170
  %172 = add nsw i64 %171, 536870912
  %173 = ashr i64 %172, 30
  %174 = trunc i64 %173 to i32
  %175 = load ptr, ptr %6, align 8, !tbaa !17
  %176 = load i32, ptr %27, align 4, !tbaa !19
  %177 = sext i32 %176 to i64
  %178 = getelementptr inbounds [2 x i32], ptr %175, i64 %177
  %179 = getelementptr inbounds [2 x i32], ptr %178, i64 0, i64 0
  store i32 %174, ptr %179, align 4, !tbaa !19
  %180 = load i32, ptr %11, align 4, !tbaa !19
  %181 = sext i32 %180 to i64
  %182 = load i32, ptr %29, align 4, !tbaa !19
  %183 = sext i32 %182 to i64
  %184 = mul nsw i64 %181, %183
  %185 = load i32, ptr %15, align 4, !tbaa !19
  %186 = sext i32 %185 to i64
  %187 = load i32, ptr %31, align 4, !tbaa !19
  %188 = sext i32 %187 to i64
  %189 = mul nsw i64 %186, %188
  %190 = add nsw i64 %184, %189
  %191 = load i32, ptr %12, align 4, !tbaa !19
  %192 = sext i32 %191 to i64
  %193 = load i32, ptr %28, align 4, !tbaa !19
  %194 = sext i32 %193 to i64
  %195 = mul nsw i64 %192, %194
  %196 = add nsw i64 %190, %195
  %197 = load i32, ptr %16, align 4, !tbaa !19
  %198 = sext i32 %197 to i64
  %199 = load i32, ptr %30, align 4, !tbaa !19
  %200 = sext i32 %199 to i64
  %201 = mul nsw i64 %198, %200
  %202 = add nsw i64 %196, %201
  %203 = add nsw i64 %202, 536870912
  %204 = ashr i64 %203, 30
  %205 = trunc i64 %204 to i32
  %206 = load ptr, ptr %6, align 8, !tbaa !17
  %207 = load i32, ptr %27, align 4, !tbaa !19
  %208 = sext i32 %207 to i64
  %209 = getelementptr inbounds [2 x i32], ptr %206, i64 %208
  %210 = getelementptr inbounds [2 x i32], ptr %209, i64 0, i64 1
  store i32 %205, ptr %210, align 4, !tbaa !19
  %211 = load i32, ptr %13, align 4, !tbaa !19
  %212 = sext i32 %211 to i64
  %213 = load i32, ptr %28, align 4, !tbaa !19
  %214 = sext i32 %213 to i64
  %215 = mul nsw i64 %212, %214
  %216 = load i32, ptr %17, align 4, !tbaa !19
  %217 = sext i32 %216 to i64
  %218 = load i32, ptr %30, align 4, !tbaa !19
  %219 = sext i32 %218 to i64
  %220 = mul nsw i64 %217, %219
  %221 = add nsw i64 %215, %220
  %222 = load i32, ptr %14, align 4, !tbaa !19
  %223 = sext i32 %222 to i64
  %224 = load i32, ptr %29, align 4, !tbaa !19
  %225 = sext i32 %224 to i64
  %226 = mul nsw i64 %223, %225
  %227 = sub nsw i64 %221, %226
  %228 = load i32, ptr %18, align 4, !tbaa !19
  %229 = sext i32 %228 to i64
  %230 = load i32, ptr %31, align 4, !tbaa !19
  %231 = sext i32 %230 to i64
  %232 = mul nsw i64 %229, %231
  %233 = sub nsw i64 %227, %232
  %234 = add nsw i64 %233, 536870912
  %235 = ashr i64 %234, 30
  %236 = trunc i64 %235 to i32
  %237 = load ptr, ptr %7, align 8, !tbaa !17
  %238 = load i32, ptr %27, align 4, !tbaa !19
  %239 = sext i32 %238 to i64
  %240 = getelementptr inbounds [2 x i32], ptr %237, i64 %239
  %241 = getelementptr inbounds [2 x i32], ptr %240, i64 0, i64 0
  store i32 %236, ptr %241, align 4, !tbaa !19
  %242 = load i32, ptr %13, align 4, !tbaa !19
  %243 = sext i32 %242 to i64
  %244 = load i32, ptr %29, align 4, !tbaa !19
  %245 = sext i32 %244 to i64
  %246 = mul nsw i64 %243, %245
  %247 = load i32, ptr %17, align 4, !tbaa !19
  %248 = sext i32 %247 to i64
  %249 = load i32, ptr %31, align 4, !tbaa !19
  %250 = sext i32 %249 to i64
  %251 = mul nsw i64 %248, %250
  %252 = add nsw i64 %246, %251
  %253 = load i32, ptr %14, align 4, !tbaa !19
  %254 = sext i32 %253 to i64
  %255 = load i32, ptr %28, align 4, !tbaa !19
  %256 = sext i32 %255 to i64
  %257 = mul nsw i64 %254, %256
  %258 = add nsw i64 %252, %257
  %259 = load i32, ptr %18, align 4, !tbaa !19
  %260 = sext i32 %259 to i64
  %261 = load i32, ptr %30, align 4, !tbaa !19
  %262 = sext i32 %261 to i64
  %263 = mul nsw i64 %260, %262
  %264 = add nsw i64 %258, %263
  %265 = add nsw i64 %264, 536870912
  %266 = ashr i64 %265, 30
  %267 = trunc i64 %266 to i32
  %268 = load ptr, ptr %7, align 8, !tbaa !17
  %269 = load i32, ptr %27, align 4, !tbaa !19
  %270 = sext i32 %269 to i64
  %271 = getelementptr inbounds [2 x i32], ptr %268, i64 %270
  %272 = getelementptr inbounds [2 x i32], ptr %271, i64 0, i64 1
  store i32 %267, ptr %272, align 4, !tbaa !19
  call void @llvm.lifetime.end.p0(i64 4, ptr %31) #3
  call void @llvm.lifetime.end.p0(i64 4, ptr %30) #3
  call void @llvm.lifetime.end.p0(i64 4, ptr %29) #3
  call void @llvm.lifetime.end.p0(i64 4, ptr %28) #3
  br label %273

273:                                              ; preds = %100
  %274 = load i32, ptr %27, align 4, !tbaa !19
  %275 = add nsw i32 %274, 1
  store i32 %275, ptr %27, align 4, !tbaa !19
  br label %96, !llvm.loop !37

276:                                              ; preds = %96
  call void @llvm.lifetime.end.p0(i64 4, ptr %27) #3
  call void @llvm.lifetime.end.p0(i64 4, ptr %26) #3
  call void @llvm.lifetime.end.p0(i64 4, ptr %25) #3
  call void @llvm.lifetime.end.p0(i64 4, ptr %24) #3
  call void @llvm.lifetime.end.p0(i64 4, ptr %23) #3
  call void @llvm.lifetime.end.p0(i64 4, ptr %22) #3
  call void @llvm.lifetime.end.p0(i64 4, ptr %21) #3
  call void @llvm.lifetime.end.p0(i64 4, ptr %20) #3
  call void @llvm.lifetime.end.p0(i64 4, ptr %19) #3
  call void @llvm.lifetime.end.p0(i64 4, ptr %18) #3
  call void @llvm.lifetime.end.p0(i64 4, ptr %17) #3
  call void @llvm.lifetime.end.p0(i64 4, ptr %16) #3
  call void @llvm.lifetime.end.p0(i64 4, ptr %15) #3
  call void @llvm.lifetime.end.p0(i64 4, ptr %14) #3
  call void @llvm.lifetime.end.p0(i64 4, ptr %13) #3
  call void @llvm.lifetime.end.p0(i64 4, ptr %12) #3
  call void @llvm.lifetime.end.p0(i64 4, ptr %11) #3
  ret void
}