; Function Attrs: nofree norecurse nosync nounwind memory(argmem: readwrite) uwtable
define internal void @ps_stereo_interpolate_ipdopd_c(ptr noundef captures(none) %0, ptr noundef captures(none) %1, ptr noundef readonly captures(none) %2, ptr noundef readonly captures(none) %3, i32 noundef %4) #1 {
  %6 = load i32, ptr %3, align 4, !tbaa !15
  %7 = getelementptr inbounds nuw i8, ptr %3, i64 16
  %8 = load i32, ptr %7, align 4, !tbaa !15
  %9 = getelementptr inbounds nuw i8, ptr %3, i64 4
  %10 = load i32, ptr %9, align 4, !tbaa !15
  %11 = getelementptr inbounds nuw i8, ptr %3, i64 20
  %12 = load i32, ptr %11, align 4, !tbaa !15
  %13 = getelementptr inbounds nuw i8, ptr %3, i64 8
  %14 = load i32, ptr %13, align 4, !tbaa !15
  %15 = getelementptr inbounds nuw i8, ptr %3, i64 24
  %16 = load i32, ptr %15, align 4, !tbaa !15
  %17 = getelementptr inbounds nuw i8, ptr %3, i64 12
  %18 = load i32, ptr %17, align 4, !tbaa !15
  %19 = getelementptr inbounds nuw i8, ptr %3, i64 28
  %20 = load i32, ptr %19, align 4, !tbaa !15
  %21 = icmp sgt i32 %4, 0
  br i1 %21, label %.lr.ph.preheader, label %._crit_edge

.lr.ph.preheader:                                 ; preds = %5
  %22 = getelementptr inbounds nuw i8, ptr %2, i64 28
  %23 = load i32, ptr %22, align 4, !tbaa !15
  %24 = getelementptr inbounds nuw i8, ptr %2, i64 12
  %25 = load i32, ptr %24, align 4, !tbaa !15
  %26 = getelementptr inbounds nuw i8, ptr %2, i64 24
  %27 = load i32, ptr %26, align 4, !tbaa !15
  %28 = getelementptr inbounds nuw i8, ptr %2, i64 8
  %29 = load i32, ptr %28, align 4, !tbaa !15
  %30 = getelementptr inbounds nuw i8, ptr %2, i64 20
  %31 = load i32, ptr %30, align 4, !tbaa !15
  %32 = getelementptr inbounds nuw i8, ptr %2, i64 4
  %33 = load i32, ptr %32, align 4, !tbaa !15
  %34 = getelementptr inbounds nuw i8, ptr %2, i64 16
  %35 = load i32, ptr %34, align 4, !tbaa !15
  %36 = load i32, ptr %2, align 4, !tbaa !15
  %wide.trip.count = zext nneg i32 %4 to i64
  br label %.lr.ph

.lr.ph:                                           ; preds = %.lr.ph.preheader, %.lr.ph
  %indvars.iv = phi i64 [ 0, %.lr.ph.preheader ], [ %indvars.iv.next, %.lr.ph ]
  %.0105 = phi i32 [ %36, %.lr.ph.preheader ], [ %45, %.lr.ph ]
  %.082104 = phi i32 [ %35, %.lr.ph.preheader ], [ %49, %.lr.ph ]
  %.083103 = phi i32 [ %33, %.lr.ph.preheader ], [ %46, %.lr.ph ]
  %.084102 = phi i32 [ %31, %.lr.ph.preheader ], [ %50, %.lr.ph ]
  %.086100 = phi i32 [ %29, %.lr.ph.preheader ], [ %47, %.lr.ph ]
  %.08799 = phi i32 [ %27, %.lr.ph.preheader ], [ %51, %.lr.ph ]
  %.08898 = phi i32 [ %25, %.lr.ph.preheader ], [ %48, %.lr.ph ]
  %.08997 = phi i32 [ %23, %.lr.ph.preheader ], [ %52, %.lr.ph ]
  %37 = getelementptr inbounds nuw [2 x i32], ptr %0, i64 %indvars.iv
  %38 = load i32, ptr %37, align 4, !tbaa !15
  %39 = getelementptr inbounds nuw i8, ptr %37, i64 4
  %40 = load i32, ptr %39, align 4, !tbaa !15
  %41 = getelementptr inbounds nuw [2 x i32], ptr %1, i64 %indvars.iv
  %42 = load i32, ptr %41, align 4, !tbaa !15
  %43 = getelementptr inbounds nuw i8, ptr %41, i64 4
  %44 = load i32, ptr %43, align 4, !tbaa !15
  %45 = add i32 %.0105, %6
  %46 = add i32 %.083103, %10
  %47 = add i32 %.086100, %14
  %48 = add i32 %.08898, %18
  %49 = add i32 %.082104, %8
  %50 = add i32 %.084102, %12
  %51 = add i32 %.08799, %16
  %52 = add i32 %.08997, %20
  %53 = sext i32 %45 to i64
  %54 = sext i32 %38 to i64
  %55 = mul nsw i64 %54, %53
  %56 = sext i32 %47 to i64
  %57 = sext i32 %42 to i64
  %58 = mul nsw i64 %57, %56
  %59 = sext i32 %49 to i64
  %60 = sext i32 %40 to i64
  %61 = sext i32 %51 to i64
  %62 = sext i32 %44 to i64
  %.neg = mul nsw i64 %60, %59
  %.neg90 = mul nsw i64 %62, %61
  %reass.add = add i64 %.neg90, %.neg
  %63 = add nsw i64 %55, 536870912
  %64 = add i64 %63, %58
  %65 = sub i64 %64, %reass.add
  %66 = lshr i64 %65, 30
  %67 = trunc i64 %66 to i32
  store i32 %67, ptr %37, align 4, !tbaa !15
  %68 = mul nsw i64 %60, %53
  %69 = mul nsw i64 %62, %56
  %70 = mul nsw i64 %54, %59
  %71 = mul nsw i64 %57, %61
  %72 = add nsw i64 %70, 536870912
  %73 = add i64 %72, %68
  %74 = add i64 %73, %71
  %75 = add i64 %74, %69
  %76 = lshr i64 %75, 30
  %77 = trunc i64 %76 to i32
  store i32 %77, ptr %39, align 4, !tbaa !15
  %78 = sext i32 %46 to i64
  %79 = mul nsw i64 %54, %78
  %80 = sext i32 %48 to i64
  %81 = mul nsw i64 %57, %80
  %82 = sext i32 %50 to i64
  %83 = sext i32 %52 to i64
  %.neg92 = mul nsw i64 %60, %82
  %.neg93 = mul nsw i64 %62, %83
  %reass.add95 = add i64 %.neg93, %.neg92
  %84 = add nsw i64 %79, 536870912
  %85 = add i64 %84, %81
  %86 = sub i64 %85, %reass.add95
  %87 = lshr i64 %86, 30
  %88 = trunc i64 %87 to i32
  store i32 %88, ptr %41, align 4, !tbaa !15
  %89 = mul nsw i64 %60, %78
  %90 = mul nsw i64 %62, %80
  %91 = mul nsw i64 %54, %82
  %92 = mul nsw i64 %57, %83
  %93 = add nsw i64 %91, 536870912
  %94 = add i64 %93, %89
  %95 = add i64 %94, %92
  %96 = add i64 %95, %90
  %97 = lshr i64 %96, 30
  %98 = trunc i64 %97 to i32
  store i32 %98, ptr %43, align 4, !tbaa !15
  %indvars.iv.next = add nuw nsw i64 %indvars.iv, 1
  %exitcond.not = icmp eq i64 %indvars.iv.next, %wide.trip.count
  br i1 %exitcond.not, label %._crit_edge, label %.lr.ph, !llvm.loop !33

._crit_edge:                                      ; preds = %.lr.ph, %5
  ret void
}